; Function Attrs: nounwind sspstrong uwtable
define internal fastcc void @tcg_gen_atomic_cmpxchg_i32_int(ptr noundef %0, ptr noundef %1, ptr noundef %2, ptr noundef %3, i64 noundef %4, i32 noundef %5) unnamed_addr #0 {
  %7 = tail call align 8 ptr @llvm.threadlocal.address.p0(ptr align 8 @tcg_ctx)
  %8 = load ptr, ptr %7, align 8
  %9 = getelementptr inbounds nuw i8, ptr %8, i64 112
  %10 = load ptr, ptr %9, align 8
  %11 = getelementptr inbounds nuw i8, ptr %10, i64 20
  %12 = load i32, ptr %11, align 4
  %13 = and i32 %12, 32768
  %.not = icmp eq i32 %13, 0
  br i1 %.not, label %14, label %15

14:                                               ; preds = %6
  tail call fastcc void @tcg_gen_nonatomic_cmpxchg_i32_int(ptr noundef %0, ptr noundef %1, ptr noundef %2, ptr noundef %3, i64 noundef %4, i32 noundef %5)
  br label %73

15:                                               ; preds = %6
  %16 = and i32 %5, 224
  %trunc.i.i = trunc nuw i32 %16 to i8
  switch i8 %trunc.i.i, label %19 [
    i8 0, label %memop_alignment_bits.exit.i
    i8 -32, label %17
  ]

17:                                               ; preds = %15
  %18 = and i32 %5, 7
  br label %memop_alignment_bits.exit.i

19:                                               ; preds = %15
  %20 = lshr exact i32 %16, 5
  br label %memop_alignment_bits.exit.i

memop_alignment_bits.exit.i:                      ; preds = %19, %17, %15
  %.0.i.i = phi i32 [ %18, %17 ], [ %20, %19 ], [ 0, %15 ]
  %21 = load i8, ptr @tcg_use_softmmu, align 1, !range !4, !noundef !5
  %22 = trunc nuw i8 %21 to i1
  br i1 %22, label %23, label %check_max_alignment.exit.i

23:                                               ; preds = %memop_alignment_bits.exit.i
  %24 = add nuw nsw i32 %.0.i.i, 5
  %25 = getelementptr inbounds nuw i8, ptr %8, i64 68
  %26 = load i8, ptr %25, align 4
  %27 = zext i8 %26 to i32
  %28 = icmp samesign ule i32 %24, %27
  tail call void @llvm.assume(i1 %28)
  br label %check_max_alignment.exit.i

check_max_alignment.exit.i:                       ; preds = %23, %memop_alignment_bits.exit.i
  %29 = and i32 %5, 7
  %30 = icmp eq i32 %.0.i.i, %29
  %31 = or i32 %5, 224
  %spec.select.i = select i1 %30, i32 %31, i32 %5
  %32 = and i32 %spec.select.i, 7
  switch i32 %32, label %37 [
    i32 0, label %33
    i32 1, label %tcg_canonicalize_memop.exit
    i32 2, label %35
  ]

33:                                               ; preds = %check_max_alignment.exit.i
  %34 = and i32 %spec.select.i, -17
  br label %tcg_canonicalize_memop.exit

35:                                               ; preds = %check_max_alignment.exit.i
  %36 = and i32 %spec.select.i, -9
  br label %tcg_canonicalize_memop.exit

37:                                               ; preds = %check_max_alignment.exit.i
  tail call void @g_assertion_message_expr(ptr noundef null, ptr noundef nonnull @.str, i32 noundef 76, ptr noundef nonnull @__func__.tcg_canonicalize_memop, ptr noundef null) #7
  unreachable

tcg_canonicalize_memop.exit:                      ; preds = %check_max_alignment.exit.i, %33, %35
  %.1.i = phi i32 [ %spec.select.i, %check_max_alignment.exit.i ], [ %34, %33 ], [ %36, %35 ]
  %38 = and i32 %.1.i, 23
  %39 = zext nneg i32 %38 to i64
  %40 = getelementptr inbounds nuw [24 x ptr], ptr @table_cmpxchg, i64 0, i64 %39
  %41 = load ptr, ptr %40, align 8
  %42 = shl nuw nsw i64 1, %39
  %43 = and i64 %42, 1966111
  %44 = icmp ne i64 %43, 0
  tail call void @llvm.assume(i1 %44)
  %45 = trunc i64 %4 to i32
  %46 = shl i32 %.1.i, 4
  %47 = and i32 %46, -144
  %48 = or i32 %47, %45
  %49 = getelementptr inbounds nuw i8, ptr %8, i64 60
  %50 = load i32, ptr %49, align 4
  %51 = icmp eq i32 %50, 0
  br i1 %51, label %52, label %59

52:                                               ; preds = %tcg_canonicalize_memop.exit
  %53 = tail call ptr @tcg_temp_ebb_new_i64() #6
  %54 = load ptr, ptr %7, align 8
  %55 = ptrtoint ptr %1 to i64
  %56 = ptrtoint ptr %54 to i64
  %57 = sub i64 %55, %56
  %58 = inttoptr i64 %57 to ptr
  tail call void @tcg_gen_extu_i32_i64(ptr noundef %53, ptr noundef %58) #6
  br label %maybe_extend_addr64.exit

59:                                               ; preds = %tcg_canonicalize_memop.exit
  %60 = ptrtoint ptr %1 to i64
  %61 = ptrtoint ptr %8 to i64
  %62 = sub i64 %60, %61
  %63 = inttoptr i64 %62 to ptr
  br label %maybe_extend_addr64.exit

maybe_extend_addr64.exit:                         ; preds = %52, %59
  %.0.i = phi ptr [ %53, %52 ], [ %63, %59 ]
  %64 = load ptr, ptr @tcg_env, align 8
  %65 = tail call ptr @tcg_constant_i32(i32 noundef %48) #6
  tail call void %41(ptr noundef %0, ptr noundef %64, ptr noundef %.0.i, ptr noundef %2, ptr noundef %3, ptr noundef %65) #6
  %66 = load ptr, ptr %7, align 8
  %67 = getelementptr inbounds nuw i8, ptr %66, i64 60
  %68 = load i32, ptr %67, align 4
  %69 = icmp eq i32 %68, 0
  br i1 %69, label %70, label %maybe_free_addr64.exit

70:                                               ; preds = %maybe_extend_addr64.exit
  tail call void @tcg_temp_free_i64(ptr noundef %.0.i) #6
  br label %maybe_free_addr64.exit

maybe_free_addr64.exit:                           ; preds = %maybe_extend_addr64.exit, %70
  %71 = and i32 %.1.i, 8
  %.not22 = icmp eq i32 %71, 0
  br i1 %.not22, label %73, label %72

72:                                               ; preds = %maybe_free_addr64.exit
  tail call void @tcg_gen_ext_i32(ptr noundef %0, ptr noundef %0, i32 noundef %.1.i)
  br label %73

73:                                               ; preds = %maybe_free_addr64.exit, %72, %14
  ret void
}